; Function Attrs: nounwind uwtable
define internal range(i32 -22, 1) i32 @apm_write_init(ptr noundef %0) #1 {
  %2 = getelementptr inbounds nuw i8, ptr %0, i64 48
  %3 = load ptr, ptr %2, align 8, !tbaa !53
  %4 = load ptr, ptr %3, align 8, !tbaa !54
  %5 = getelementptr inbounds nuw i8, ptr %4, i64 16
  %6 = load ptr, ptr %5, align 8, !tbaa !28
  %7 = getelementptr inbounds nuw i8, ptr %6, i64 132
  %8 = load i32, ptr %7, align 4, !tbaa !43
  %9 = icmp sgt i32 %8, 2
  br i1 %9, label %.sink.split, label %10

10:                                               ; preds = %1
  %11 = getelementptr inbounds nuw i8, ptr %6, i64 152
  %12 = load i32, ptr %11, align 8, !tbaa !35
  %13 = icmp sgt i32 %12, 268435455
  br i1 %13, label %.sink.split, label %14

14:                                               ; preds = %10
  %15 = getelementptr inbounds nuw i8, ptr %6, i64 24
  %16 = load i32, ptr %15, align 8, !tbaa !59
  %.not = icmp eq i32 %16, 28
  br i1 %.not, label %17, label %.sink.split

17:                                               ; preds = %14
  %18 = getelementptr inbounds nuw i8, ptr %0, i64 32
  %19 = load ptr, ptr %18, align 8, !tbaa !13
  %20 = getelementptr inbounds nuw i8, ptr %19, i64 144
  %21 = load i32, ptr %20, align 8, !tbaa !60
  %22 = and i32 %21, 1
  %.not9 = icmp eq i32 %22, 0
  br i1 %.not9, label %.sink.split, label %23

.sink.split:                                      ; preds = %17, %14, %10, %1
  %.str.7.sink = phi ptr [ @.str.4, %1 ], [ @.str.5, %10 ], [ @.str.6, %14 ], [ @.str.7, %17 ]
  tail call void (ptr, i32, ptr, ...) @av_log(ptr noundef nonnull %0, i32 noundef 16, ptr noundef nonnull %.str.7.sink) #7
  br label %23

23:                                               ; preds = %.sink.split, %17
  %.0 = phi i32 [ 0, %17 ], [ -22, %.sink.split ]
  ret i32 %.0
}